target datalayout = "e-m:e-p270:32:32-p271:32:32-p272:64:64-i64:64-i128:128-f80:128-n8:16:32:64-S128"
target triple = "x86_64-pc-linux-gnu"

%struct._packet_info = type { ptr, ptr, i32, i32, %struct.nstime_t, %struct.nstime_t, %struct.nstime_t, i8, ptr, ptr, ptr, ptr, %struct._address, %struct._address, %struct._address, %struct._address, %struct._address, %struct._address, i32, ptr, i8, [3 x i8], %struct.anon, i32, i32, i32, i32, ptr, i8, ptr, ptr, i16, i16, i32, i32, i16, i32, i32, ptr, ptr, ptr, i8, i8, i16, i16, i16, i32, i16, i16, ptr, ptr, ptr, ptr, ptr, i32, i32 }
%struct.nstime_t = type { i64, i32 }
%struct._address = type { i32, i32, ptr, ptr }
%struct.anon = type { i8, [3 x i8] }

@hf_nfs_data = internal global i32 0, align 4
@hf_nfs3_write_stable = internal global i32 0, align 4
@hf_nfs3_offset = internal global i32 0, align 4
@hf_nfs3_count = internal global i32 0, align 4
@.str.2244 = private unnamed_addr constant [5 x i8] c"file\00", align 1
@.str.2318 = private unnamed_addr constant [36 x i8] c", FH: 0x%08x Offset: %lu Len: %u %s\00", align 1
@.str.2319 = private unnamed_addr constant [11 x i8] c"Stable: %u\00", align 1
@.str.2320 = private unnamed_addr constant [47 x i8] c", WRITE Call FH: 0x%08x Offset: %lu Len: %u %s\00", align 1

; Function Attrs: null_pointer_is_valid sspstrong uwtable
define internal i32 @dissect_nfsdata(ptr noundef %0, i32 noundef %1, ptr noundef %2, i32 noundef %3) #0 {
  %5 = alloca ptr, align 8
  %6 = alloca i32, align 4
  %7 = alloca ptr, align 8
  %8 = alloca i32, align 4
  store ptr %0, ptr %5, align 8
  store i32 %1, ptr %6, align 4
  store ptr %2, ptr %7, align 8
  store i32 %3, ptr %8, align 4
  %9 = load ptr, ptr %5, align 8
  %10 = load ptr, ptr %7, align 8
  %11 = load i32, ptr %8, align 4
  %12 = load i32, ptr %6, align 4
  %13 = call i32 @dissect_rpc_data(ptr noundef %9, ptr noundef %10, i32 noundef %11, i32 noundef %12)
  store i32 %13, ptr %6, align 4
  %14 = load i32, ptr %6, align 4
  ret i32 %14
}

; Function Attrs: null_pointer_is_valid sspstrong uwtable
define internal i32 @dissect_stable_how(ptr noundef %0, i32 noundef %1, ptr noundef %2, i32 noundef %3) #0 {
  %5 = alloca ptr, align 8
  %6 = alloca i32, align 4
  %7 = alloca ptr, align 8
  %8 = alloca i32, align 4
  store ptr %0, ptr %5, align 8
  store i32 %1, ptr %6, align 4
  store ptr %2, ptr %7, align 8
  store i32 %3, ptr %8, align 4
  %9 = load ptr, ptr %7, align 8
  %10 = load i32, ptr %8, align 4
  %11 = load ptr, ptr %5, align 8
  %12 = load i32, ptr %6, align 4
  %13 = call ptr @proto_tree_add_item(ptr noundef %9, i32 noundef %10, ptr noundef %11, i32 noundef %12, i32 noundef 4, i32 noundef 0)
  %14 = load i32, ptr %6, align 4
  %15 = add i32 %14, 4
  store i32 %15, ptr %6, align 4
  %16 = load i32, ptr %6, align 4
  ret i32 %16
}

; Function Attrs: null_pointer_is_valid sspstrong uwtable
define internal i32 @dissect_nfs3_write_call(ptr noundef %0, ptr noundef %1, ptr noundef %2, ptr noundef %3) #0 {
  %5 = alloca ptr, align 8
  %6 = alloca ptr, align 8
  %7 = alloca ptr, align 8
  %8 = alloca ptr, align 8
  %9 = alloca i64, align 8
  %10 = alloca i32, align 4
  %11 = alloca i32, align 4
  %12 = alloca i32, align 4
  %13 = alloca i32, align 4
  store ptr %0, ptr %5, align 8
  store ptr %1, ptr %6, align 8
  store ptr %2, ptr %7, align 8
  store ptr %3, ptr %8, align 8
  call void @llvm.lifetime.start.p0(i64 8, ptr %9) #16
  call void @llvm.lifetime.start.p0(i64 4, ptr %10) #16
  call void @llvm.lifetime.start.p0(i64 4, ptr %11) #16
  call void @llvm.lifetime.start.p0(i64 4, ptr %12) #16
  store i32 0, ptr %12, align 4
  call void @llvm.lifetime.start.p0(i64 4, ptr %13) #16
  store i32 0, ptr %13, align 4
  %14 = load ptr, ptr %5, align 8
  %15 = load i32, ptr %13, align 4
  %16 = load ptr, ptr %6, align 8
  %17 = load ptr, ptr %7, align 8
  %18 = load ptr, ptr %8, align 8
  %19 = call i32 @dissect_nfs3_fh(ptr noundef %14, i32 noundef %15, ptr noundef %16, ptr noundef %17, ptr noundef @.str.2244, ptr noundef %12, ptr noundef %18)
  store i32 %19, ptr %13, align 4
  %20 = load ptr, ptr %5, align 8
  %21 = load i32, ptr %13, align 4
  %22 = call i64 @tvb_get_ntoh64(ptr noundef %20, i32 noundef %21)
  store i64 %22, ptr %9, align 8
  %23 = load ptr, ptr %5, align 8
  %24 = load ptr, ptr %7, align 8
  %25 = load i32, ptr @hf_nfs3_offset, align 4
  %26 = load i32, ptr %13, align 4
  %27 = call i32 @dissect_rpc_uint64(ptr noundef %23, ptr noundef %24, i32 noundef %25, i32 noundef %26)
  store i32 %27, ptr %13, align 4
  %28 = load ptr, ptr %5, align 8
  %29 = load i32, ptr %13, align 4
  %30 = call i32 @tvb_get_ntohl(ptr noundef %28, i32 noundef %29)
  store i32 %30, ptr %10, align 4
  %31 = load ptr, ptr %5, align 8
  %32 = load ptr, ptr %7, align 8
  %33 = load i32, ptr @hf_nfs3_count, align 4
  %34 = load i32, ptr %13, align 4
  %35 = call i32 @dissect_rpc_uint32(ptr noundef %31, ptr noundef %32, i32 noundef %33, i32 noundef %34)
  store i32 %35, ptr %13, align 4
  %36 = load ptr, ptr %5, align 8
  %37 = load i32, ptr %13, align 4
  %38 = call i32 @tvb_get_ntohl(ptr noundef %36, i32 noundef %37)
  store i32 %38, ptr %11, align 4
  %39 = load ptr, ptr %5, align 8
  %40 = load i32, ptr %13, align 4
  %41 = load ptr, ptr %7, align 8
  %42 = load i32, ptr @hf_nfs3_write_stable, align 4
  %43 = call i32 @dissect_stable_how(ptr noundef %39, i32 noundef %40, ptr noundef %41, i32 noundef %42)
  store i32 %43, ptr %13, align 4
  %44 = load ptr, ptr %6, align 8
  %45 = getelementptr inbounds nuw %struct._packet_info, ptr %44, i32 0, i32 1
  %46 = load ptr, ptr %45, align 8
  %47 = load i32, ptr %12, align 4
  %48 = load i64, ptr %9, align 8
  %49 = load i32, ptr %10, align 4
  %50 = load i32, ptr %11, align 4
  %51 = call ptr @val_to_str(i32 noundef %50, ptr noundef @names_stable_how, ptr noundef @.str.2319)
  call void (ptr, i32, ptr, ...) @col_append_fstr(ptr noundef %46, i32 noundef 25, ptr noundef @.str.2318, i32 noundef %47, i64 noundef %48, i32 noundef %49, ptr noundef %51)
  %52 = load ptr, ptr %7, align 8
  %53 = load i32, ptr %12, align 4
  %54 = load i64, ptr %9, align 8
  %55 = load i32, ptr %10, align 4
  %56 = load i32, ptr %11, align 4
  %57 = call ptr @val_to_str(i32 noundef %56, ptr noundef @names_stable_how, ptr noundef @.str.2319)
  call void (ptr, ptr, ...) @proto_item_append_text(ptr noundef %52, ptr noundef @.str.2320, i32 noundef %53, i64 noundef %54, i32 noundef %55, ptr noundef %57)
  %58 = load ptr, ptr %5, align 8
  %59 = load i32, ptr %13, align 4
  %60 = load ptr, ptr %7, align 8
  %61 = load i32, ptr @hf_nfs_data, align 4
  %62 = call i32 @dissect_nfsdata(ptr noundef %58, i32 noundef %59, ptr noundef %60, i32 noundef %61)
  store i32 %62, ptr %13, align 4
  %63 = load i32, ptr %13, align 4
  call void @llvm.lifetime.end.p0(i64 4, ptr %13) #16
  call void @llvm.lifetime.end.p0(i64 4, ptr %12) #16
  call void @llvm.lifetime.end.p0(i64 4, ptr %11) #16
  call void @llvm.lifetime.end.p0(i64 4, ptr %10) #16
  call void @llvm.lifetime.end.p0(i64 8, ptr %9) #16
  ret i32 %63
}