; Function Attrs: null_pointer_is_valid sspstrong uwtable
define internal i32 @dissect_nfs3_write_call(ptr noundef %0, ptr noundef %1, ptr noundef %2, ptr noundef readonly captures(none) %3) #0 {
  %5 = alloca i32, align 4
  call void @llvm.lifetime.start.p0(i64 4, ptr nonnull %5) #22
  store i32 0, ptr %5, align 4
  %6 = call i32 @dissect_nfs3_fh(ptr noundef %0, i32 noundef 0, ptr noundef %1, ptr noundef %2, ptr noundef nonnull @.str.2244, ptr noundef nonnull %5, ptr noundef %3)
  %7 = call i64 @tvb_get_ntoh64(ptr noundef %0, i32 noundef %6)
  %8 = load i32, ptr @hf_nfs3_offset, align 4
  %9 = call i32 @dissect_rpc_uint64(ptr noundef %0, ptr noundef %2, i32 noundef %8, i32 noundef %6)
  %10 = call i32 @tvb_get_ntohl(ptr noundef %0, i32 noundef %9)
  %11 = load i32, ptr @hf_nfs3_count, align 4
  %12 = call i32 @dissect_rpc_uint32(ptr noundef %0, ptr noundef %2, i32 noundef %11, i32 noundef %9)
  %13 = call i32 @tvb_get_ntohl(ptr noundef %0, i32 noundef %12)
  %14 = load i32, ptr @hf_nfs3_write_stable, align 4
  %15 = call ptr @proto_tree_add_item(ptr noundef %2, i32 noundef %14, ptr noundef %0, i32 noundef %12, i32 noundef 4, i32 noundef 0)
  %16 = add i32 %12, 4
  %17 = getelementptr inbounds nuw i8, ptr %1, i64 8
  %18 = load ptr, ptr %17, align 8
  %19 = load i32, ptr %5, align 4
  %20 = call ptr @val_to_str(i32 noundef %13, ptr noundef nonnull @names_stable_how, ptr noundef nonnull @.str.2319)
  call void (ptr, i32, ptr, ...) @col_append_fstr(ptr noundef %18, i32 noundef 25, ptr noundef nonnull @.str.2318, i32 noundef %19, i64 noundef %7, i32 noundef %10, ptr noundef %20)
  %21 = load i32, ptr %5, align 4
  %22 = call ptr @val_to_str(i32 noundef %13, ptr noundef nonnull @names_stable_how, ptr noundef nonnull @.str.2319)
  call void (ptr, ptr, ...) @proto_item_append_text(ptr noundef %2, ptr noundef nonnull @.str.2320, i32 noundef %21, i64 noundef %7, i32 noundef %10, ptr noundef %22)
  %23 = load i32, ptr @hf_nfs_data, align 4
  %24 = call i32 @dissect_rpc_data(ptr noundef %0, ptr noundef %2, i32 noundef %23, i32 noundef %16)
  call void @llvm.lifetime.end.p0(i64 4, ptr nonnull %5) #22
  ret i32 %24
}